target datalayout = "e-m:e-p270:32:32-p271:32:32-p272:64:64-i64:64-i128:128-f80:128-n8:16:32:64-S128"
target triple = "x86_64-pc-linux-gnu"

%struct.lv_ll_t = type { i32, ptr, ptr }
%struct.lv_style_t = type { ptr, i32, i8 }
%struct._lv_spangroup_t = type { %struct._lv_obj_t, i32, i32, i32, i32, %struct.lv_ll_t, i8 }
%struct._lv_obj_t = type { ptr, ptr, ptr, ptr, ptr, %struct.lv_area_t, i32, i16, i16 }
%struct.lv_area_t = type { i32, i32, i32, i32 }
%struct._lv_span_t = type { ptr, ptr, %struct.lv_style_t, i8, %struct.lv_point_t, i32 }
%struct.lv_point_t = type { i32, i32 }
%union.lv_style_value_t = type { ptr }

; Function Attrs: inlinehint nounwind uwtable
define internal ptr @lv_obj_get_style_text_font(ptr noundef %0, i32 noundef %1) #3 {
  %3 = alloca ptr, align 8
  %4 = alloca i32, align 4
  %5 = alloca %union.lv_style_value_t, align 8
  store ptr %0, ptr %3, align 8, !tbaa !3
  store i32 %1, ptr %4, align 4, !tbaa !23
  call void @llvm.lifetime.start.p0(i64 8, ptr %5) #6
  %6 = load ptr, ptr %3, align 8, !tbaa !3
  %7 = load i32, ptr %4, align 4, !tbaa !23
  %8 = call ptr @lv_obj_get_style_prop(ptr noundef %6, i32 noundef %7, i8 noundef zeroext 90)
  %9 = getelementptr inbounds nuw %union.lv_style_value_t, ptr %5, i32 0, i32 0
  store ptr %8, ptr %9, align 8
  %10 = load ptr, ptr %5, align 8, !tbaa !45
  call void @llvm.lifetime.end.p0(i64 8, ptr %5) #6
  ret ptr %10
}

; Function Attrs: nounwind uwtable
define internal ptr @lv_span_get_style_text_font(ptr noundef %0, ptr noundef %1) #0 {
  %3 = alloca ptr, align 8
  %4 = alloca ptr, align 8
  %5 = alloca ptr, align 8
  %6 = alloca %union.lv_style_value_t, align 8
  %7 = alloca i32, align 4
  store ptr %0, ptr %3, align 8, !tbaa !3
  store ptr %1, ptr %4, align 8, !tbaa !3
  call void @llvm.lifetime.start.p0(i64 8, ptr %5) #6
  call void @llvm.lifetime.start.p0(i64 8, ptr %6) #6
  call void @llvm.lifetime.start.p0(i64 4, ptr %7) #6
  %8 = load ptr, ptr %4, align 8, !tbaa !3
  %9 = getelementptr inbounds nuw %struct._lv_span_t, ptr %8, i32 0, i32 2
  %10 = call i32 @lv_style_get_prop(ptr noundef %9, i8 noundef zeroext 90, ptr noundef %6)
  store i32 %10, ptr %7, align 4, !tbaa !23
  %11 = load i32, ptr %7, align 4, !tbaa !23
  %12 = icmp ne i32 %11, 1
  br i1 %12, label %13, label %16

13:                                               ; preds = %2
  %14 = load ptr, ptr %3, align 8, !tbaa !3
  %15 = call ptr @lv_obj_get_style_text_font(ptr noundef %14, i32 noundef 0)
  store ptr %15, ptr %5, align 8, !tbaa !3
  br label %18

16:                                               ; preds = %2
  %17 = load ptr, ptr %6, align 8, !tbaa !45
  store ptr %17, ptr %5, align 8, !tbaa !3
  br label %18

18:                                               ; preds = %16, %13
  %19 = load ptr, ptr %5, align 8, !tbaa !3
  call void @llvm.lifetime.end.p0(i64 4, ptr %7) #6
  call void @llvm.lifetime.end.p0(i64 8, ptr %6) #6
  call void @llvm.lifetime.end.p0(i64 8, ptr %5) #6
  ret ptr %19
}

; Function Attrs: nounwind uwtable
define i32 @lv_spangroup_get_max_line_height(ptr noundef %0) #0 {
  %2 = alloca ptr, align 8
  %3 = alloca ptr, align 8
  %4 = alloca i32, align 4
  %5 = alloca ptr, align 8
  %6 = alloca ptr, align 8
  %7 = alloca i32, align 4
  store ptr %0, ptr %2, align 8, !tbaa !3
  br label %8

8:                                                ; preds = %1
  br label %9

9:                                                ; preds = %8
  call void @llvm.lifetime.start.p0(i64 8, ptr %3) #6
  %10 = load ptr, ptr %2, align 8, !tbaa !3
  store ptr %10, ptr %3, align 8, !tbaa !3
  call void @llvm.lifetime.start.p0(i64 4, ptr %4) #6
  store i32 0, ptr %4, align 4, !tbaa !23
  call void @llvm.lifetime.start.p0(i64 8, ptr %5) #6
  %11 = load ptr, ptr %3, align 8, !tbaa !3
  %12 = getelementptr inbounds nuw %struct._lv_spangroup_t, ptr %11, i32 0, i32 5
  %13 = call ptr @lv_ll_get_head(ptr noundef %12)
  store ptr %13, ptr %5, align 8, !tbaa !3
  br label %14

14:                                               ; preds = %29, %9
  %15 = load ptr, ptr %5, align 8, !tbaa !3
  %16 = icmp ne ptr %15, null
  br i1 %16, label %17, label %34

17:                                               ; preds = %14
  call void @llvm.lifetime.start.p0(i64 8, ptr %6) #6
  %18 = load ptr, ptr %2, align 8, !tbaa !3
  %19 = load ptr, ptr %5, align 8, !tbaa !3
  %20 = call ptr @lv_span_get_style_text_font(ptr noundef %18, ptr noundef %19)
  store ptr %20, ptr %6, align 8, !tbaa !3
  call void @llvm.lifetime.start.p0(i64 4, ptr %7) #6
  %21 = load ptr, ptr %6, align 8, !tbaa !3
  %22 = call i32 @lv_font_get_line_height(ptr noundef %21)
  store i32 %22, ptr %7, align 4, !tbaa !23
  %23 = load i32, ptr %7, align 4, !tbaa !23
  %24 = load i32, ptr %4, align 4, !tbaa !23
  %25 = icmp sgt i32 %23, %24
  br i1 %25, label %26, label %28

26:                                               ; preds = %17
  %27 = load i32, ptr %7, align 4, !tbaa !23
  store i32 %27, ptr %4, align 4, !tbaa !23
  br label %28

28:                                               ; preds = %26, %17
  call void @llvm.lifetime.end.p0(i64 4, ptr %7) #6
  call void @llvm.lifetime.end.p0(i64 8, ptr %6) #6
  br label %29

29:                                               ; preds = %28
  %30 = load ptr, ptr %3, align 8, !tbaa !3
  %31 = getelementptr inbounds nuw %struct._lv_spangroup_t, ptr %30, i32 0, i32 5
  %32 = load ptr, ptr %5, align 8, !tbaa !3
  %33 = call ptr @lv_ll_get_next(ptr noundef %31, ptr noundef %32)
  store ptr %33, ptr %5, align 8, !tbaa !3
  br label %14, !llvm.loop !58

34:                                               ; preds = %14
  %35 = load i32, ptr %4, align 4, !tbaa !23
  call void @llvm.lifetime.end.p0(i64 8, ptr %5) #6
  call void @llvm.lifetime.end.p0(i64 4, ptr %4) #6
  call void @llvm.lifetime.end.p0(i64 8, ptr %3) #6
  ret i32 %35
}