; Function Attrs: nounwind uwtable
define range(i32 0, -2147483648) i32 @lv_spangroup_get_max_line_height(ptr noundef %0) local_unnamed_addr #0 {
  %2 = alloca %union.lv_style_value_t, align 8
  %3 = getelementptr inbounds nuw i8, ptr %0, i64 80
  %4 = tail call ptr @lv_ll_get_head(ptr noundef nonnull %3) #8
  %.not13 = icmp eq ptr %4, null
  br i1 %.not13, label %._crit_edge, label %.lr.ph

.lr.ph:                                           ; preds = %1, %lv_span_get_style_text_font.exit
  %.015 = phi i32 [ %spec.select, %lv_span_get_style_text_font.exit ], [ 0, %1 ]
  %.01114 = phi ptr [ %12, %lv_span_get_style_text_font.exit ], [ %4, %1 ]
  call void @llvm.lifetime.start.p0(i64 8, ptr nonnull %2) #8
  %5 = getelementptr inbounds nuw i8, ptr %.01114, i64 16
  %6 = call i32 @lv_style_get_prop(ptr noundef nonnull %5, i8 noundef zeroext 90, ptr noundef nonnull %2) #8
  %.not.i = icmp eq i32 %6, 1
  br i1 %.not.i, label %9, label %7

7:                                                ; preds = %.lr.ph
  %8 = call ptr @lv_obj_get_style_prop(ptr noundef %0, i32 noundef 0, i8 noundef zeroext 90) #8
  br label %lv_span_get_style_text_font.exit

9:                                                ; preds = %.lr.ph
  %10 = load ptr, ptr %2, align 8, !tbaa !38
  br label %lv_span_get_style_text_font.exit

lv_span_get_style_text_font.exit:                 ; preds = %7, %9
  %.0.i = phi ptr [ %8, %7 ], [ %10, %9 ]
  call void @llvm.lifetime.end.p0(i64 8, ptr nonnull %2) #8
  %11 = call i32 @lv_font_get_line_height(ptr noundef %.0.i) #8
  %spec.select = call i32 @llvm.smax.i32(i32 %11, i32 %.015)
  %12 = call ptr @lv_ll_get_next(ptr noundef nonnull %3, ptr noundef nonnull %.01114) #8
  %.not = icmp eq ptr %12, null
  br i1 %.not, label %._crit_edge, label %.lr.ph, !llvm.loop !78

._crit_edge:                                      ; preds = %lv_span_get_style_text_font.exit, %1
  %.0.lcssa = phi i32 [ 0, %1 ], [ %spec.select, %lv_span_get_style_text_font.exit ]
  ret i32 %.0.lcssa
}